target datalayout = "e-m:e-p270:32:32-p271:32:32-p272:64:64-i64:64-i128:128-f80:128-n8:16:32:64-S128"
target triple = "x86_64-unknown-linux-gnu"

; Function Attrs: mustprogress nounwind uwtable
define dso_local noundef i32 @_ZN4node6crypto16GetCurveFromNameEPKc(ptr noundef %name) #4 {
entry:
  %name.addr = alloca ptr, align 8
  %nid = alloca i32, align 4
  store ptr %name, ptr %name.addr, align 8
  %0 = load ptr, ptr %name.addr, align 8
  %call = call i32 @EC_curve_nist2nid(ptr noundef %0)
  store i32 %call, ptr %nid, align 4
  %1 = load i32, ptr %nid, align 4
  %cmp = icmp eq i32 %1, 0
  br i1 %cmp, label %if.then, label %if.end

if.then:                                          ; preds = %entry
  %2 = load ptr, ptr %name.addr, align 8
  %call1 = call i32 @OBJ_sn2nid(ptr noundef %2)
  store i32 %call1, ptr %nid, align 4
  br label %if.end

if.end:                                           ; preds = %if.then, %entry
  %3 = load i32, ptr %nid, align 4
  ret i32 %3
}