; Function Attrs: mustprogress nounwind uwtable
define dso_local noundef i32 @_ZN4node6crypto16GetCurveFromNameEPKc(ptr noundef %name) local_unnamed_addr #3 {
entry:
  %call = tail call i32 @EC_curve_nist2nid(ptr noundef %name) #22
  %cmp = icmp eq i32 %call, 0
  br i1 %cmp, label %if.then, label %if.end

if.then:                                          ; preds = %entry
  %call1 = tail call i32 @OBJ_sn2nid(ptr noundef %name) #22
  br label %if.end

if.end:                                           ; preds = %if.then, %entry
  %nid.0 = phi i32 [ %call1, %if.then ], [ %call, %entry ]
  ret i32 %nid.0
}